target datalayout = "e-m:e-p270:32:32-p271:32:32-p272:64:64-i64:64-i128:128-f80:128-n8:16:32:64-S128"
target triple = "x86_64-pc-linux-gnu"

%struct._GArray = type { ptr, i32 }
%struct.open_info = type { ptr, i32, ptr, ptr, ptr, ptr }

@open_info_arr = internal global ptr null, align 8
@open_routines = global ptr null, align 8

; Function Attrs: null_pointer_is_valid sspstrong uwtable
define hidden void @cleanup_open_routines() #0 {
  %1 = alloca i32, align 4
  %2 = alloca ptr, align 8
  call void @llvm.lifetime.start.p0(i64 4, ptr %1) #12
  call void @llvm.lifetime.start.p0(i64 8, ptr %2) #12
  %3 = load ptr, ptr @open_routines, align 8
  %4 = icmp ne ptr %3, null
  br i1 %4, label %5, label %34

5:                                                ; preds = %0
  %6 = load ptr, ptr @open_info_arr, align 8
  %7 = icmp ne ptr %6, null
  br i1 %7, label %8, label %34

8:                                                ; preds = %5
  store i32 0, ptr %1, align 4
  %9 = load ptr, ptr @open_routines, align 8
  store ptr %9, ptr %2, align 8
  br label %10

10:                                               ; preds = %26, %8
  %11 = load i32, ptr %1, align 4
  %12 = load ptr, ptr @open_info_arr, align 8
  %13 = getelementptr inbounds nuw %struct._GArray, ptr %12, i32 0, i32 1
  %14 = load i32, ptr %13, align 8
  %15 = icmp ult i32 %11, %14
  br i1 %15, label %16, label %31

16:                                               ; preds = %10
  %17 = load ptr, ptr %2, align 8
  %18 = getelementptr inbounds nuw %struct.open_info, ptr %17, i32 0, i32 3
  %19 = load ptr, ptr %18, align 8
  %20 = icmp ne ptr %19, null
  br i1 %20, label %21, label %25

21:                                               ; preds = %16
  %22 = load ptr, ptr %2, align 8
  %23 = getelementptr inbounds nuw %struct.open_info, ptr %22, i32 0, i32 4
  %24 = load ptr, ptr %23, align 8
  call void @g_strfreev(ptr noundef %24)
  br label %25

25:                                               ; preds = %21, %16
  br label %26

26:                                               ; preds = %25
  %27 = load i32, ptr %1, align 4
  %28 = add i32 %27, 1
  store i32 %28, ptr %1, align 4
  %29 = load ptr, ptr %2, align 8
  %30 = getelementptr %struct.open_info, ptr %29, i32 1
  store ptr %30, ptr %2, align 8
  br label %10, !llvm.loop !35

31:                                               ; preds = %10
  %32 = load ptr, ptr @open_info_arr, align 8
  %33 = call ptr @g_array_free(ptr noundef %32, i32 noundef 1)
  store ptr null, ptr @open_info_arr, align 8
  br label %34

34:                                               ; preds = %31, %5, %0
  call void @llvm.lifetime.end.p0(i64 8, ptr %2) #12
  call void @llvm.lifetime.end.p0(i64 4, ptr %1) #12
  ret void
}