; Function Attrs: null_pointer_is_valid sspstrong uwtable
define hidden void @cleanup_open_routines() local_unnamed_addr #0 {
  %1 = load ptr, ptr @open_routines, align 8
  %2 = icmp ne ptr %1, null
  %3 = load ptr, ptr @open_info_arr, align 8
  %4 = icmp ne ptr %3, null
  %or.cond = select i1 %2, i1 %4, i1 false
  br i1 %or.cond, label %.preheader, label %21

.preheader:                                       ; preds = %0
  %5 = getelementptr inbounds nuw i8, ptr %3, i64 8
  %6 = load i32, ptr %5, align 8
  %.not9 = icmp eq i32 %6, 0
  br i1 %.not9, label %._crit_edge, label %.lr.ph

.lr.ph:                                           ; preds = %.preheader, %13
  %7 = phi ptr [ %14, %13 ], [ %3, %.preheader ]
  %.08 = phi ptr [ %16, %13 ], [ %1, %.preheader ]
  %.057 = phi i32 [ %15, %13 ], [ 0, %.preheader ]
  %8 = getelementptr inbounds nuw i8, ptr %.08, i64 24
  %9 = load ptr, ptr %8, align 8
  %.not = icmp eq ptr %9, null
  br i1 %.not, label %13, label %10

10:                                               ; preds = %.lr.ph
  %11 = getelementptr inbounds nuw i8, ptr %.08, i64 32
  %12 = load ptr, ptr %11, align 8
  tail call void @g_strfreev(ptr noundef %12)
  %.pre = load ptr, ptr @open_info_arr, align 8
  br label %13

13:                                               ; preds = %.lr.ph, %10
  %14 = phi ptr [ %7, %.lr.ph ], [ %.pre, %10 ]
  %15 = add nuw i32 %.057, 1
  %16 = getelementptr i8, ptr %.08, i64 48
  %17 = getelementptr inbounds nuw i8, ptr %14, i64 8
  %18 = load i32, ptr %17, align 8
  %19 = icmp ult i32 %15, %18
  br i1 %19, label %.lr.ph, label %._crit_edge, !llvm.loop !40

._crit_edge:                                      ; preds = %13, %.preheader
  %.lcssa = phi ptr [ %3, %.preheader ], [ %14, %13 ]
  %20 = tail call ptr @g_array_free(ptr noundef %.lcssa, i32 noundef 1)
  store ptr null, ptr @open_info_arr, align 8
  br label %21

21:                                               ; preds = %._crit_edge, %0
  ret void
}